; Function Attrs: mustprogress uwtable
define void @_ZN27ModulePreferencesScrollArea20uatPushButtonClickedEv(ptr noundef nonnull align 8 dereferenceable(56) %0) #0 align 2 personality ptr @__gxx_personality_v0 {
  %2 = alloca %class.QVariant, align 8
  %3 = tail call noundef ptr @_ZNK7QObject6senderEv(ptr noundef nonnull align 8 dereferenceable(16) %0)
  %4 = tail call noundef ptr @_ZNK11QMetaObject4castEPK7QObject(ptr noundef nonnull align 8 dereferenceable(56) @_ZN11QPushButton16staticMetaObjectE, ptr noundef %3)
  %.not = icmp eq ptr %4, null
  br i1 %.not, label %15, label %5

5:                                                ; preds = %1
  %6 = load ptr, ptr @pref_prop_, align 8
  call void @_ZNK7QObject8propertyEPKc(ptr dead_on_unwind nonnull writable sret(%class.QVariant) align 8 %2, ptr noundef nonnull align 8 dereferenceable(16) %4, ptr noundef %6)
  %7 = invoke noundef ptr @_Z13qvariant_castIPvET_RK8QVariant(ptr noundef nonnull align 8 dereferenceable(32) %2)
          to label %_ZN14VariantPointerI10preferenceE5asPtrE8QVariant.exit unwind label %8

_ZN14VariantPointerI10preferenceE5asPtrE8QVariant.exit: ; preds = %5
  call void @_ZN8QVariantD1Ev(ptr noundef nonnull align 8 dereferenceable(32) %2) #15
  %.not12 = icmp eq ptr %7, null
  br i1 %.not12, label %15, label %10

8:                                                ; preds = %5
  %9 = landingpad { ptr, i32 }
          cleanup
  call void @_ZN8QVariantD1Ev(ptr noundef nonnull align 8 dereferenceable(32) %2) #15
  br label %18

10:                                               ; preds = %_ZN14VariantPointerI10preferenceE5asPtrE8QVariant.exit
  %11 = call noalias noundef nonnull dereferenceable(112) ptr @_Znwm(i64 noundef 112) #14
  %12 = invoke ptr @prefs_get_uat_value(ptr noundef nonnull %7)
          to label %13 unwind label %16

13:                                               ; preds = %10
  invoke void @_ZN9UatDialogC1EP7QWidgetP8epan_uat(ptr noundef nonnull align 8 dereferenceable(112) %11, ptr noundef nonnull %0, ptr noundef %12)
          to label %14 unwind label %16

14:                                               ; preds = %13
  call void @_ZN7QWidget17setWindowModalityEN2Qt14WindowModalityE(ptr noundef nonnull align 8 dereferenceable(40) %11, i32 noundef 2)
  call void @_ZN7QWidget12setAttributeEN2Qt15WidgetAttributeEb(ptr noundef nonnull align 8 dereferenceable(40) %11, i32 noundef 55, i1 noundef zeroext true)
  call void @_ZN7QWidget4showEv(ptr noundef nonnull align 8 dereferenceable(40) %11)
  br label %15

15:                                               ; preds = %_ZN14VariantPointerI10preferenceE5asPtrE8QVariant.exit, %1, %14
  ret void

16:                                               ; preds = %13, %10
  %17 = landingpad { ptr, i32 }
          cleanup
  call void @_ZdlPv(ptr noundef nonnull %11) #16
  br label %18

18:                                               ; preds = %16, %8
  %.pn = phi { ptr, i32 } [ %17, %16 ], [ %9, %8 ]
  resume { ptr, i32 } %.pn
}